target datalayout = "e-m:e-p270:32:32-p271:32:32-p272:64:64-i64:64-i128:128-f80:128-n8:16:32:64-S128"
target triple = "x86_64-pc-linux-gnu"

; Function Attrs: mustprogress uwtable
define hidden void @_ZN7mitsuba14rtcIntersect32EPKiP10RTCSceneTyP19RTCIntersectContextPj(ptr noundef %0, ptr noundef %1, ptr noundef %2, ptr noundef %3) #0 {
  %5 = alloca ptr, align 8
  %6 = alloca ptr, align 8
  %7 = alloca ptr, align 8
  %8 = alloca ptr, align 8
  %9 = alloca i64, align 8
  %10 = alloca i64, align 8
  %11 = alloca [320 x i32], align 64
  %12 = alloca i64, align 8
  %13 = alloca ptr, align 8
  %14 = alloca ptr, align 8
  %15 = alloca i64, align 8
  %16 = alloca i32, align 4
  store ptr %0, ptr %5, align 8
  store ptr %1, ptr %6, align 8
  store ptr %2, ptr %7, align 8
  store ptr %3, ptr %8, align 8
  store i64 16, ptr %9, align 8
  store i64 2, ptr %10, align 8
  store i64 0, ptr %12, align 8
  br label %17

17:                                               ; preds = %82, %4
  %18 = load i64, ptr %12, align 8
  %19 = icmp ult i64 %18, 2
  br i1 %19, label %20, label %85

20:                                               ; preds = %17
  %21 = load ptr, ptr %8, align 8
  %22 = load i64, ptr %12, align 8
  %23 = mul i64 16, %22
  %24 = getelementptr inbounds i32, ptr %21, i64 %23
  store ptr %24, ptr %13, align 8
  %25 = getelementptr inbounds [320 x i32], ptr %11, i64 0, i64 0
  store ptr %25, ptr %14, align 8
  store i64 0, ptr %15, align 8
  br label %26

26:                                               ; preds = %36, %20
  %27 = load i64, ptr %15, align 8
  %28 = icmp ult i64 %27, 20
  br i1 %28, label %29, label %39

29:                                               ; preds = %26
  %30 = load ptr, ptr %14, align 8
  %31 = load ptr, ptr %13, align 8
  call void @llvm.memcpy.p0.p0.i64(ptr align 4 %30, ptr align 4 %31, i64 64, i1 false)
  %32 = load ptr, ptr %13, align 8
  %33 = getelementptr inbounds i32, ptr %32, i64 32
  store ptr %33, ptr %13, align 8
  %34 = load ptr, ptr %14, align 8
  %35 = getelementptr inbounds i32, ptr %34, i64 16
  store ptr %35, ptr %14, align 8
  br label %36

36:                                               ; preds = %29
  %37 = load i64, ptr %15, align 8
  %38 = add i64 %37, 1
  store i64 %38, ptr %15, align 8
  br label %26, !llvm.loop !7

39:                                               ; preds = %26
  %40 = getelementptr inbounds [320 x i32], ptr %11, i64 0, i64 0
  %41 = getelementptr inbounds i32, ptr %40, i64 272
  %42 = load ptr, ptr %8, align 8
  %43 = load i64, ptr %12, align 8
  %44 = add i64 %43, 34
  %45 = mul i64 16, %44
  %46 = getelementptr inbounds i32, ptr %42, i64 %45
  call void @llvm.memcpy.p0.p0.i64(ptr align 4 %41, ptr align 4 %46, i64 64, i1 false)
  %47 = load ptr, ptr %5, align 8
  %48 = load i64, ptr %12, align 8
  %49 = mul i64 16, %48
  %50 = getelementptr inbounds i32, ptr %47, i64 %49
  %51 = load ptr, ptr %6, align 8
  %52 = load ptr, ptr %7, align 8
  %53 = getelementptr inbounds [320 x i32], ptr %11, i64 0, i64 0
  call void @rtcIntersect16(ptr noundef %50, ptr noundef %51, ptr noundef %52, ptr noundef %53)
  %54 = load ptr, ptr %8, align 8
  %55 = load i64, ptr %12, align 8
  %56 = add i64 %55, 16
  %57 = mul i64 16, %56
  %58 = getelementptr inbounds i32, ptr %54, i64 %57
  %59 = getelementptr inbounds [320 x i32], ptr %11, i64 0, i64 0
  %60 = getelementptr inbounds i32, ptr %59, i64 128
  call void @llvm.memcpy.p0.p0.i64(ptr align 4 %58, ptr align 4 %60, i64 64, i1 false)
  %61 = load ptr, ptr %8, align 8
  %62 = load i64, ptr %12, align 8
  %63 = add i64 %62, 24
  %64 = mul i64 16, %63
  %65 = getelementptr inbounds i32, ptr %61, i64 %64
  store ptr %65, ptr %13, align 8
  %66 = getelementptr inbounds [320 x i32], ptr %11, i64 0, i64 0
  %67 = getelementptr inbounds i32, ptr %66, i64 192
  store ptr %67, ptr %14, align 8
  store i32 0, ptr %16, align 4
  br label %68

68:                                               ; preds = %78, %39
  %69 = load i32, ptr %16, align 4
  %70 = icmp slt i32 %69, 8
  br i1 %70, label %71, label %81

71:                                               ; preds = %68
  %72 = load ptr, ptr %13, align 8
  %73 = load ptr, ptr %14, align 8
  call void @llvm.memcpy.p0.p0.i64(ptr align 4 %72, ptr align 4 %73, i64 64, i1 false)
  %74 = load ptr, ptr %13, align 8
  %75 = getelementptr inbounds i32, ptr %74, i64 32
  store ptr %75, ptr %13, align 8
  %76 = load ptr, ptr %14, align 8
  %77 = getelementptr inbounds i32, ptr %76, i64 16
  store ptr %77, ptr %14, align 8
  br label %78

78:                                               ; preds = %71
  %79 = load i32, ptr %16, align 4
  %80 = add nsw i32 %79, 1
  store i32 %80, ptr %16, align 4
  br label %68, !llvm.loop !8

81:                                               ; preds = %68
  br label %82

82:                                               ; preds = %81
  %83 = load i64, ptr %12, align 8
  %84 = add i64 %83, 1
  store i64 %84, ptr %12, align 8
  br label %17, !llvm.loop !9

85:                                               ; preds = %17
  ret void
}