; Function Attrs: mustprogress uwtable
define hidden void @_ZN7mitsuba14rtcIntersect32EPKiP10RTCSceneTyP19RTCIntersectContextPj(ptr noundef %0, ptr noundef %1, ptr noundef %2, ptr nocapture noundef %3) local_unnamed_addr #0 {
  %5 = alloca [320 x i32], align 64
  %6 = getelementptr inbounds i8, ptr %5, i64 1088
  %7 = getelementptr inbounds i8, ptr %5, i64 512
  %8 = getelementptr inbounds i8, ptr %5, i64 768
  br label %9

9:                                                ; preds = %4, %28
  %10 = phi i1 [ true, %4 ], [ false, %28 ]
  %.02936 = phi i64 [ 0, %4 ], [ 16, %28 ]
  %11 = getelementptr inbounds i32, ptr %3, i64 %.02936
  br label %12

12:                                               ; preds = %9, %12
  %.02532 = phi i64 [ 0, %9 ], [ %15, %12 ]
  %.02631 = phi ptr [ %5, %9 ], [ %14, %12 ]
  %.02730 = phi ptr [ %11, %9 ], [ %13, %12 ]
  call void @llvm.memcpy.p0.p0.i64(ptr noundef nonnull align 4 dereferenceable(64) %.02631, ptr noundef nonnull align 4 dereferenceable(64) %.02730, i64 64, i1 false)
  %13 = getelementptr inbounds i8, ptr %.02730, i64 128
  %14 = getelementptr inbounds i8, ptr %.02631, i64 64
  %15 = add nuw nsw i64 %.02532, 1
  %exitcond.not = icmp eq i64 %15, 20
  br i1 %exitcond.not, label %16, label %12, !llvm.loop !7

16:                                               ; preds = %12
  %17 = or disjoint i64 %.02936, 544
  %18 = getelementptr inbounds i32, ptr %3, i64 %17
  call void @llvm.memcpy.p0.p0.i64(ptr noundef nonnull align 64 dereferenceable(64) %6, ptr noundef nonnull align 4 dereferenceable(64) %18, i64 64, i1 false)
  %19 = getelementptr inbounds i32, ptr %0, i64 %.02936
  call void @rtcIntersect16(ptr noundef %19, ptr noundef %1, ptr noundef %2, ptr noundef nonnull %5)
  %20 = or disjoint i64 %.02936, 256
  %21 = getelementptr inbounds i32, ptr %3, i64 %20
  call void @llvm.memcpy.p0.p0.i64(ptr noundef nonnull align 4 dereferenceable(64) %21, ptr noundef nonnull align 64 dereferenceable(64) %7, i64 64, i1 false)
  %22 = or disjoint i64 %.02936, 384
  %23 = getelementptr inbounds i32, ptr %3, i64 %22
  br label %24

24:                                               ; preds = %16, %24
  %.035 = phi i32 [ 0, %16 ], [ %27, %24 ]
  %.134 = phi ptr [ %8, %16 ], [ %26, %24 ]
  %.12833 = phi ptr [ %23, %16 ], [ %25, %24 ]
  call void @llvm.memcpy.p0.p0.i64(ptr noundef nonnull align 4 dereferenceable(64) %.12833, ptr noundef nonnull align 4 dereferenceable(64) %.134, i64 64, i1 false)
  %25 = getelementptr inbounds i8, ptr %.12833, i64 128
  %26 = getelementptr inbounds i8, ptr %.134, i64 64
  %27 = add nuw nsw i32 %.035, 1
  %exitcond37.not = icmp eq i32 %27, 8
  br i1 %exitcond37.not, label %28, label %24, !llvm.loop !8

28:                                               ; preds = %24
  br i1 %10, label %9, label %29, !llvm.loop !9

29:                                               ; preds = %28
  ret void
}